---
triple:          'arm64-apple-darwin'
binary-path:     '/Users/rkemal/Desktop/cpp/lib'
relocations:
  - { offsetInCU: 0xB9A8, offset: 0xB9A8, size: 0x8, addend: 0x0, symName: __ZNSt3__124__put_character_sequenceB7v160006IcNS_11char_traitsIcEEEERNS_13basic_ostreamIT_T0_EES7_PKS4_m, symObjAddr: 0x1D7C, symBinAddr: 0x1000032C0, symSize: 0x1EC }
  - { offsetInCU: 0xE92F, offset: 0xE92F, size: 0x8, addend: 0x0, symName: __ZNSt3__1lsB7v160006INS_11char_traitsIcEEEERNS_13basic_ostreamIcT_EES6_PKc, symObjAddr: 0xB8, symBinAddr: 0x1000015FC, symSize: 0x48 }
  - { offsetInCU: 0xE975, offset: 0xE975, size: 0x8, addend: 0x0, symName: __ZNSt3__14endlB7v160006IcNS_11char_traitsIcEEEERNS_13basic_ostreamIT_T0_EES7_, symObjAddr: 0x4AC, symBinAddr: 0x1000019F0, symSize: 0x58 }
  - { offsetInCU: 0xE9B5, offset: 0xE9B5, size: 0x8, addend: 0x0, symName: __ZNSt3__17getlineB7v160006IcNS_11char_traitsIcEENS_9allocatorIcEEEERNS_13basic_istreamIT_T0_EES9_RNS_12basic_stringIS6_S7_T1_EE, symObjAddr: 0x504, symBinAddr: 0x100001A48, symSize: 0x5C }
  - { offsetInCU: 0xEA0D, offset: 0xEA0D, size: 0x8, addend: 0x0, symName: __ZNSt3__1rsB7v160006INS_19basic_istringstreamIcNS_11char_traitsIcEENS_9allocatorIcEEEERNS_12basic_stringIcS3_S5_EEvEEOT_SB_OT0_, symObjAddr: 0x560, symBinAddr: 0x100001AA4, symSize: 0x30 }
  - { offsetInCU: 0xF2C6, offset: 0xF2C6, size: 0x8, addend: 0x0, symName: __ZNSt3__1neB7v160006IP7LibraryEEbRKNS_11__wrap_iterIT_EES7_, symObjAddr: 0x904, symBinAddr: 0x100001E48, symSize: 0x34 }
  - { offsetInCU: 0xF309, offset: 0xF309, size: 0x8, addend: 0x0, symName: __ZNSt3__1lsB7v160006IcNS_11char_traitsIcEENS_9allocatorIcEEEERNS_13basic_ostreamIT_T0_EES9_RKNS_12basic_stringIS6_S7_T1_EE, symObjAddr: 0x950, symBinAddr: 0x100001E94, symSize: 0x4C }
  - { offsetInCU: 0xF518, offset: 0xF518, size: 0x8, addend: 0x0, symName: __ZNSt3__1eqB7v160006IP7LibraryEEbRKNS_11__wrap_iterIT_EES7_, symObjAddr: 0x19E8, symBinAddr: 0x100002F2C, symSize: 0x48 }
  - { offsetInCU: 0xF55B, offset: 0xF55B, size: 0x8, addend: 0x0, symName: __ZNSt3__119__debug_db_insert_cB7v160006INS_12basic_stringIcNS_11char_traitsIcEENS_9allocatorIcEEEEEEvPT_, symObjAddr: 0x1C38, symBinAddr: 0x10000317C, symSize: 0x10 }
  - { offsetInCU: 0xF58C, offset: 0xF58C, size: 0x8, addend: 0x0, symName: __ZNSt3__116__pad_and_outputB7v160006IcNS_11char_traitsIcEEEENS_19ostreambuf_iteratorIT_T0_EES6_PKS4_S8_S8_RNS_8ios_baseES4_, symObjAddr: 0x1FB8, symBinAddr: 0x1000034FC, symSize: 0x240 }
  - { offsetInCU: 0xF65B, offset: 0xF65B, size: 0x8, addend: 0x0, symName: __ZNSt3__112__to_addressB7v160006IcEEPT_S2_, symObjAddr: 0x2430, symBinAddr: 0x100003974, symSize: 0x14 }
  - { offsetInCU: 0xF6C3, offset: 0xF6C3, size: 0x8, addend: 0x0, symName: __ZNSt3__19use_facetB7v160006INS_5ctypeIcEEEERKT_RKNS_6localeE, symObjAddr: 0x26A8, symBinAddr: 0x100003BEC, symSize: 0x2C }
  - { offsetInCU: 0xFAA3, offset: 0xFAA3, size: 0x8, addend: 0x0, symName: __ZNSt3__118__constexpr_strlenB7v160006EPKc, symObjAddr: 0x2740, symBinAddr: 0x100003C84, symSize: 0x24 }
  - { offsetInCU: 0xFACF, offset: 0xFACF, size: 0x8, addend: 0x0, symName: __ZNSt3__119__debug_db_insert_cB7v160006INS_6vectorI7LibraryNS_9allocatorIS2_EEEEEEvPT_, symObjAddr: 0x27F8, symBinAddr: 0x100003D3C, symSize: 0x10 }
  - { offsetInCU: 0xFB00, offset: 0xFB00, size: 0x8, addend: 0x0, symName: __ZNSt3__118__debug_db_erase_cB7v160006INS_6vectorI7LibraryNS_9allocatorIS2_EEEEEEvPT_, symObjAddr: 0x2AD8, symBinAddr: 0x10000401C, symSize: 0x10 }
  - { offsetInCU: 0xFB31, offset: 0xFB31, size: 0x8, addend: 0x0, symName: __ZNSt3__112__to_addressB7v160006I7LibraryEEPT_S3_, symObjAddr: 0x2C1C, symBinAddr: 0x100004160, symSize: 0x14 }
  - { offsetInCU: 0xFB66, offset: 0xFB66, size: 0x8, addend: 0x0, symName: __ZNSt3__119__libcpp_deallocateB7v160006EPvmm, symObjAddr: 0x2D54, symBinAddr: 0x100004298, symSize: 0x60 }
  - { offsetInCU: 0xFBCB, offset: 0xFBCB, size: 0x8, addend: 0x0, symName: __ZNSt3__124__is_overaligned_for_newB7v160006Em, symObjAddr: 0x2DB4, symBinAddr: 0x1000042F8, symSize: 0x20 }
  - { offsetInCU: 0xFBF9, offset: 0xFBF9, size: 0x8, addend: 0x0, symName: __ZNSt3__127__do_deallocate_handle_sizeB7v160006IJSt11align_val_tEEEvPvmDpT_, symObjAddr: 0x2DD4, symBinAddr: 0x100004318, symSize: 0x30 }
  - { offsetInCU: 0xFC4C, offset: 0xFC4C, size: 0x8, addend: 0x0, symName: __ZNSt3__127__do_deallocate_handle_sizeB7v160006IJEEEvPvmDpT_, symObjAddr: 0x2E04, symBinAddr: 0x100004348, symSize: 0x28 }
  - { offsetInCU: 0xFC8A, offset: 0xFC8A, size: 0x8, addend: 0x0, symName: __ZNSt3__124__libcpp_operator_deleteB7v160006IJPvSt11align_val_tEEEvDpT_, symObjAddr: 0x2E2C, symBinAddr: 0x100004370, symSize: 0x2C }
  - { offsetInCU: 0xFCD3, offset: 0xFCD3, size: 0x8, addend: 0x0, symName: __ZNSt3__124__libcpp_operator_deleteB7v160006IJPvEEEvDpT_, symObjAddr: 0x2E58, symBinAddr: 0x10000439C, symSize: 0x24 }
  - { offsetInCU: 0xFD08, offset: 0xFD08, size: 0x8, addend: 0x0, symName: __ZNSt3__17getlineB7v160006IcNS_11char_traitsIcEENS_9allocatorIcEEEERNS_13basic_istreamIT_T0_EES9_RNS_12basic_stringIS6_S7_T1_EES6_, symObjAddr: 0x2F14, symBinAddr: 0x100004458, symSize: 0x238 }
  - { offsetInCU: 0xFDC6, offset: 0xFDC6, size: 0x8, addend: 0x0, symName: __ZNSt3__125__debug_db_invalidate_allB7v160006INS_12basic_stringIcNS_11char_traitsIcEENS_9allocatorIcEEEEEEvPT_, symObjAddr: 0x3430, symBinAddr: 0x100004974, symSize: 0x10 }
  - { offsetInCU: 0xFFE3, offset: 0xFFE3, size: 0x8, addend: 0x0, symName: __ZNSt3__1rsB7v160006IcNS_11char_traitsIcEENS_9allocatorIcEEEERNS_13basic_istreamIT_T0_EES9_RNS_12basic_stringIS6_S7_T1_EE, symObjAddr: 0x3988, symBinAddr: 0x100004ECC, symSize: 0x308 }
  - { offsetInCU: 0x1029A, offset: 0x1029A, size: 0x8, addend: 0x0, symName: __ZNSt3__13maxB7v160006ImEERKT_S3_S3_, symObjAddr: 0x4430, symBinAddr: 0x100005974, symSize: 0x2C }
  - { offsetInCU: 0x102DD, offset: 0x102DD, size: 0x8, addend: 0x0, symName: __ZNSt3__13minB7v160006ImEERKT_S3_S3_, symObjAddr: 0x445C, symBinAddr: 0x1000059A0, symSize: 0x2C }
  - { offsetInCU: 0x10320, offset: 0x10320, size: 0x8, addend: 0x0, symName: __ZNSt3__13minB7v160006ImNS_6__lessImmEEEERKT_S5_S5_T0_, symObjAddr: 0x44D4, symBinAddr: 0x100005A18, symSize: 0x54 }
  - { offsetInCU: 0x103B5, offset: 0x103B5, size: 0x8, addend: 0x0, symName: __ZNSt3__120__throw_length_errorB7v160006EPKc, symObjAddr: 0x45B4, symBinAddr: 0x100005AF8, symSize: 0x64 }
  - { offsetInCU: 0x103DD, offset: 0x103DD, size: 0x8, addend: 0x0, symName: __ZNSt3__13maxB7v160006ImNS_6__lessImmEEEERKT_S5_S5_T0_, symObjAddr: 0x4698, symBinAddr: 0x100005BDC, symSize: 0x54 }
  - { offsetInCU: 0x10437, offset: 0x10437, size: 0x8, addend: 0x0, symName: __ZNSt3__119__allocate_at_leastB7v160006INS_9allocatorI7LibraryEEEENS_19__allocation_resultINS_16allocator_traitsIT_E7pointerEEERS6_m, symObjAddr: 0x4808, symBinAddr: 0x100005D4C, symSize: 0x40 }
  - { offsetInCU: 0x1047A, offset: 0x1047A, size: 0x8, addend: 0x0, symName: __ZNSt3__117__libcpp_allocateB7v160006Emm, symObjAddr: 0x4990, symBinAddr: 0x100005ED4, symSize: 0x60 }
  - { offsetInCU: 0x104D4, offset: 0x104D4, size: 0x8, addend: 0x0, symName: __ZNSt3__121__libcpp_operator_newB7v160006IJmSt11align_val_tEEEPvDpT_, symObjAddr: 0x49F0, symBinAddr: 0x100005F34, symSize: 0x2C }
  - { offsetInCU: 0x10521, offset: 0x10521, size: 0x8, addend: 0x0, symName: __ZNSt3__121__libcpp_operator_newB7v160006IJmEEEPvDpT_, symObjAddr: 0x4A1C, symBinAddr: 0x100005F60, symSize: 0x24 }
  - { offsetInCU: 0x1055A, offset: 0x1055A, size: 0x8, addend: 0x0, symName: __ZNSt3__142__uninitialized_allocator_move_if_noexceptB7v160006INS_9allocatorI7LibraryEENS_16reverse_iteratorIPS2_EES6_S6_EET2_RT_T0_T1_S7_, symObjAddr: 0x4AA4, symBinAddr: 0x100005FE8, symSize: 0x12C }
  - { offsetInCU: 0x105FA, offset: 0x105FA, size: 0x8, addend: 0x0, symName: __ZNSt3__14swapB7v160006IP7LibraryEENS_9enable_ifIXaasr21is_move_constructibleIT_EE5valuesr18is_move_assignableIS4_EE5valueEvE4typeERS4_S7_, symObjAddr: 0x4C1C, symBinAddr: 0x100006160, symSize: 0x3C }
  - { offsetInCU: 0x1064B, offset: 0x1064B, size: 0x8, addend: 0x0, symName: __ZNSt3__125__debug_db_invalidate_allB7v160006INS_6vectorI7LibraryNS_9allocatorIS2_EEEEEEvPT_, symObjAddr: 0x4D20, symBinAddr: 0x100006264, symSize: 0x10 }
  - { offsetInCU: 0x1067C, offset: 0x1067C, size: 0x8, addend: 0x0, symName: __ZNSt3__122__make_exception_guardB7v160006INS_29_AllocatorDestroyRangeReverseINS_9allocatorI7LibraryEENS_16reverse_iteratorIPS3_EEEEEENS_28__exception_guard_exceptionsIT_EESA_, symObjAddr: 0x4D30, symBinAddr: 0x100006274, symSize: 0x4C }
  - { offsetInCU: 0x106B2, offset: 0x106B2, size: 0x8, addend: 0x0, symName: __ZNSt3__1neB7v160006IP7LibraryS2_EEbRKNS_16reverse_iteratorIT_EERKNS3_IT0_EE, symObjAddr: 0x4DC0, symBinAddr: 0x100006304, symSize: 0x48 }
  - { offsetInCU: 0x106FE, offset: 0x106FE, size: 0x8, addend: 0x0, symName: __ZNSt3__112__to_addressB7v160006INS_16reverse_iteratorIP7LibraryEEvEENS_5decayIDTclsr19__to_address_helperIT_EE6__callclsr3stdE7declvalIRKS6_EEEEE4typeES8_, symObjAddr: 0x4E3C, symBinAddr: 0x100006380, symSize: 0x24 }
  - { offsetInCU: 0x10734, offset: 0x10734, size: 0x8, addend: 0x0, symName: __ZNSt3__115__debug_db_swapB7v160006INS_12basic_stringIcNS_11char_traitsIcEENS_9allocatorIcEEEEEEvPT_S8_, symObjAddr: 0x5100, symBinAddr: 0x100006644, symSize: 0x14 }
  - { offsetInCU: 0x1079C, offset: 0x1079C, size: 0x8, addend: 0x0, symName: __ZNSt3__119__allocator_destroyB7v160006INS_9allocatorI7LibraryEENS_16reverse_iteratorINS4_IPS2_EEEES7_EEvRT_T0_T1_, symObjAddr: 0x5274, symBinAddr: 0x1000067B8, symSize: 0x70 }
  - { offsetInCU: 0x10801, offset: 0x10801, size: 0x8, addend: 0x0, symName: __ZNSt3__1neB7v160006INS_16reverse_iteratorIP7LibraryEES4_EEbRKNS1_IT_EERKNS1_IT0_EE, symObjAddr: 0x5320, symBinAddr: 0x100006864, symSize: 0x60 }
  - { offsetInCU: 0x1084D, offset: 0x1084D, size: 0x8, addend: 0x0, symName: __ZNSt3__112__to_addressB7v160006INS_16reverse_iteratorINS1_IP7LibraryEEEEvEENS_5decayIDTclsr19__to_address_helperIT_EE6__callclsr3stdE7declvalIRKS7_EEEEE4typeES9_, symObjAddr: 0x5380, symBinAddr: 0x1000068C4, symSize: 0x24 }
  - { offsetInCU: 0x108AC, offset: 0x108AC, size: 0x8, addend: 0x0, symName: __ZNSt3__112__to_addressB7v160006IKcEEPT_S3_, symObjAddr: 0x5828, symBinAddr: 0x100006D6C, symSize: 0x14 }
  - { offsetInCU: 0x10914, offset: 0x10914, size: 0x8, addend: 0x0, symName: __ZNSt3__110__str_findB7v160006IcmNS_11char_traitsIcEELm18446744073709551615EEET0_PKT_S3_S6_S3_S3_, symObjAddr: 0x591C, symBinAddr: 0x100006E60, symSize: 0xE4 }
  - { offsetInCU: 0x109BB, offset: 0x109BB, size: 0x8, addend: 0x0, symName: __ZNSt3__118__search_substringB7v160006IcNS_11char_traitsIcEEEEPKT_S5_S5_S5_S5_, symObjAddr: 0x5A00, symBinAddr: 0x100006F44, symSize: 0x154 }
  - { offsetInCU: 0x10A55, offset: 0x10A55, size: 0x8, addend: 0x0, symName: __ZNSt3__123__constexpr_char_memchrB7v160006EPKcim, symObjAddr: 0x5C30, symBinAddr: 0x100007174, symSize: 0x34 }
  - { offsetInCU: 0x10A9D, offset: 0x10A9D, size: 0x8, addend: 0x0, symName: __ZNSt3__118__constexpr_memcmpB7v160006IcEEiPKT_S3_m, symObjAddr: 0x5C64, symBinAddr: 0x1000071A8, symSize: 0x34 }
  - { offsetInCU: 0x10F2A, offset: 0x10F2A, size: 0x8, addend: 0x0, symName: __ZSt28__throw_bad_array_new_lengthB7v160006v, symObjAddr: 0x495C, symBinAddr: 0x100005EA0, symSize: 0x34 }
  - { offsetInCU: 0x11B5A, offset: 0x11B5A, size: 0x8, addend: 0x0, symName: __ZNSt3__16vectorI7LibraryNS_9allocatorIS1_EEE26__swap_out_circular_bufferERNS_14__split_bufferIS1_RS3_EE, symObjAddr: 0x4270, symBinAddr: 0x1000057B4, symSize: 0x118 }
  - { offsetInCU: 0x13D75, offset: 0x13D75, size: 0x8, addend: 0x0, symName: __ZN7Library11control_panEv, symObjAddr: 0x0, symBinAddr: 0x100001544, symSize: 0xB8 }
  - { offsetInCU: 0x13D9C, offset: 0x13D9C, size: 0x8, addend: 0x0, symName: __ZN7Library10add_book_vEv, symObjAddr: 0x100, symBinAddr: 0x100001644, symSize: 0x2FC }
  - { offsetInCU: 0x13E58, offset: 0x13E58, size: 0x8, addend: 0x0, symName: __ZNSt3__16vectorI7LibraryNS_9allocatorIS1_EEEC1B7v160006Ev, symObjAddr: 0x3FC, symBinAddr: 0x100001940, symSize: 0x2C }
  - { offsetInCU: 0x13E82, offset: 0x13E82, size: 0x8, addend: 0x0, symName: __ZNSt3__112basic_stringIcNS_11char_traitsIcEENS_9allocatorIcEEEC1B7v160006Ev, symObjAddr: 0x428, symBinAddr: 0x10000196C, symSize: 0x2C }
  - { offsetInCU: 0x13EAC, offset: 0x13EAC, size: 0x8, addend: 0x0, symName: __ZN7LibraryC1Ev, symObjAddr: 0x454, symBinAddr: 0x100001998, symSize: 0x2C }
  - { offsetInCU: 0x13ED8, offset: 0x13ED8, size: 0x8, addend: 0x0, symName: __ZNSt3__113basic_ostreamIcNS_11char_traitsIcEEElsB7v160006EPFRS3_S4_E, symObjAddr: 0x480, symBinAddr: 0x1000019C4, symSize: 0x2C }
  - { offsetInCU: 0x13F0C, offset: 0x13F0C, size: 0x8, addend: 0x0, symName: __ZNSt3__119basic_istringstreamIcNS_11char_traitsIcEENS_9allocatorIcEEEC1B7v160006ERKNS_12basic_stringIcS2_S4_EEj, symObjAddr: 0x590, symBinAddr: 0x100001AD4, symSize: 0xFC }
  - { offsetInCU: 0x13F59, offset: 0x13F59, size: 0x8, addend: 0x0, symName: __ZNSt3__119basic_istringstreamIcNS_11char_traitsIcEENS_9allocatorIcEEED1Ev, symObjAddr: 0x68C, symBinAddr: 0x100001BD0, symSize: 0x40 }
  - { offsetInCU: 0x13F86, offset: 0x13F86, size: 0x8, addend: 0x0, symName: __ZNSt3__16vectorI7LibraryNS_9allocatorIS1_EEE9push_backB7v160006ERKS1_, symObjAddr: 0x6CC, symBinAddr: 0x100001C10, symSize: 0x6C }
  - { offsetInCU: 0x14055, offset: 0x14055, size: 0x8, addend: 0x0, symName: __ZNSt3__114basic_ofstreamIcNS_11char_traitsIcEEEC1Ev, symObjAddr: 0x738, symBinAddr: 0x100001C7C, symSize: 0xE8 }
  - { offsetInCU: 0x14081, offset: 0x14081, size: 0x8, addend: 0x0, symName: __ZNKSt3__114basic_ofstreamIcNS_11char_traitsIcEEE7is_openEv, symObjAddr: 0x820, symBinAddr: 0x100001D64, symSize: 0x2C }
  - { offsetInCU: 0x140A9, offset: 0x140A9, size: 0x8, addend: 0x0, symName: __ZNSt3__114basic_ofstreamIcNS_11char_traitsIcEEE5closeEv, symObjAddr: 0x84C, symBinAddr: 0x100001D90, symSize: 0x58 }
  - { offsetInCU: 0x140D1, offset: 0x140D1, size: 0x8, addend: 0x0, symName: __ZNSt3__16vectorI7LibraryNS_9allocatorIS1_EEE5beginB7v160006Ev, symObjAddr: 0x8A4, symBinAddr: 0x100001DE8, symSize: 0x30 }
  - { offsetInCU: 0x140F9, offset: 0x140F9, size: 0x8, addend: 0x0, symName: __ZNSt3__16vectorI7LibraryNS_9allocatorIS1_EEE3endB7v160006Ev, symObjAddr: 0x8D4, symBinAddr: 0x100001E18, symSize: 0x30 }
  - { offsetInCU: 0x14121, offset: 0x14121, size: 0x8, addend: 0x0, symName: __ZNKSt3__111__wrap_iterIP7LibraryEdeB7v160006Ev, symObjAddr: 0x938, symBinAddr: 0x100001E7C, symSize: 0x18 }
  - { offsetInCU: 0x14147, offset: 0x14147, size: 0x8, addend: 0x0, symName: __ZNSt3__111__wrap_iterIP7LibraryEppB7v160006Ev, symObjAddr: 0x99C, symBinAddr: 0x100001EE0, symSize: 0x20 }
  - { offsetInCU: 0x1416D, offset: 0x1416D, size: 0x8, addend: 0x0, symName: __ZNKSt3__19basic_iosIcNS_11char_traitsIcEEE4failB7v160006Ev, symObjAddr: 0x9BC, symBinAddr: 0x100001F00, symSize: 0x28 }
  - { offsetInCU: 0x14198, offset: 0x14198, size: 0x8, addend: 0x0, symName: __ZNSt3__114basic_ofstreamIcNS_11char_traitsIcEEED1Ev, symObjAddr: 0x9E4, symBinAddr: 0x100001F28, symSize: 0x40 }
  - { offsetInCU: 0x141C5, offset: 0x141C5, size: 0x8, addend: 0x0, symName: __ZN7LibraryD1Ev, symObjAddr: 0xA24, symBinAddr: 0x100001F68, symSize: 0x2C }
  - { offsetInCU: 0x141F1, offset: 0x141F1, size: 0x8, addend: 0x0, symName: __ZNSt3__16vectorI7LibraryNS_9allocatorIS1_EEED1B7v160006Ev, symObjAddr: 0xA50, symBinAddr: 0x100001F94, symSize: 0x2C }
  - { offsetInCU: 0x1421B, offset: 0x1421B, size: 0x8, addend: 0x0, symName: __ZN7Library8add_bookEv, symObjAddr: 0xA7C, symBinAddr: 0x100001FC0, symSize: 0x418 }
  - { offsetInCU: 0x14261, offset: 0x14261, size: 0x8, addend: 0x0, symName: __ZNSt3__111char_traitsIcE3eofEv, symObjAddr: 0xE94, symBinAddr: 0x1000023D8, symSize: 0x8 }
  - { offsetInCU: 0x1428E, offset: 0x1428E, size: 0x8, addend: 0x0, symName: __ZNSt3__114basic_ifstreamIcNS_11char_traitsIcEEEC1EPKcj, symObjAddr: 0xE9C, symBinAddr: 0x1000023E0, symSize: 0x16C }
  - { offsetInCU: 0x142D8, offset: 0x142D8, size: 0x8, addend: 0x0, symName: __ZNKSt3__19basic_iosIcNS_11char_traitsIcEEEcvbB7v160006Ev, symObjAddr: 0x1008, symBinAddr: 0x10000254C, symSize: 0x2C }
  - { offsetInCU: 0x142FE, offset: 0x142FE, size: 0x8, addend: 0x0, symName: __ZNKSt3__14fposI11__mbstate_tEcvxB7v160006Ev, symObjAddr: 0x1034, symBinAddr: 0x100002578, symSize: 0x18 }
  - { offsetInCU: 0x14324, offset: 0x14324, size: 0x8, addend: 0x0, symName: __ZNSt3__114basic_ifstreamIcNS_11char_traitsIcEEE5closeEv, symObjAddr: 0x104C, symBinAddr: 0x100002590, symSize: 0x58 }
  - { offsetInCU: 0x14351, offset: 0x14351, size: 0x8, addend: 0x0, symName: __ZNSt3__114basic_ifstreamIcNS_11char_traitsIcEEED1Ev, symObjAddr: 0x10A4, symBinAddr: 0x1000025E8, symSize: 0x40 }
  - { offsetInCU: 0x1437E, offset: 0x1437E, size: 0x8, addend: 0x0, symName: __ZN7Library13display_booksEv, symObjAddr: 0x10E4, symBinAddr: 0x100002628, symSize: 0x188 }
  - { offsetInCU: 0x143C3, offset: 0x143C3, size: 0x8, addend: 0x0, symName: __ZNSt3__114basic_ifstreamIcNS_11char_traitsIcEEEC1Ev, symObjAddr: 0x126C, symBinAddr: 0x1000027B0, symSize: 0xE8 }
  - { offsetInCU: 0x143EF, offset: 0x143EF, size: 0x8, addend: 0x0, symName: __ZNKSt3__114basic_ifstreamIcNS_11char_traitsIcEEE7is_openEv, symObjAddr: 0x1354, symBinAddr: 0x100002898, symSize: 0x2C }
  - { offsetInCU: 0x14417, offset: 0x14417, size: 0x8, addend: 0x0, symName: __ZN7Library11delete_bookEv, symObjAddr: 0x1380, symBinAddr: 0x1000028C4, symSize: 0x22C }
  - { offsetInCU: 0x14479, offset: 0x14479, size: 0x8, addend: 0x0, symName: __ZNSt3__114basic_ofstreamIcNS_11char_traitsIcEEEC1EPKcj, symObjAddr: 0x15AC, symBinAddr: 0x100002AF0, symSize: 0x16C }
  - { offsetInCU: 0x144C3, offset: 0x144C3, size: 0x8, addend: 0x0, symName: __ZNKSt3__112basic_stringIcNS_11char_traitsIcEENS_9allocatorIcEEE4findB7v160006ERKS5_m, symObjAddr: 0x1718, symBinAddr: 0x100002C5C, symSize: 0x78 }
  - { offsetInCU: 0x14509, offset: 0x14509, size: 0x8, addend: 0x0, symName: _main, symObjAddr: 0x1790, symBinAddr: 0x100002CD4, symSize: 0x11C }
  - { offsetInCU: 0x1454E, offset: 0x1454E, size: 0x8, addend: 0x0, symName: __ZN7LibraryC2Ev, symObjAddr: 0x18AC, symBinAddr: 0x100002DF0, symSize: 0x3C }
  - { offsetInCU: 0x1457A, offset: 0x1457A, size: 0x8, addend: 0x0, symName: __ZNSt3__119basic_istringstreamIcNS_11char_traitsIcEENS_9allocatorIcEEED2Ev, symObjAddr: 0x18E8, symBinAddr: 0x100002E2C, symSize: 0x64 }
  - { offsetInCU: 0x145B4, offset: 0x145B4, size: 0x8, addend: 0x0, symName: __ZTv0_n24_NSt3__119basic_istringstreamIcNS_11char_traitsIcEENS_9allocatorIcEEED1Ev, symObjAddr: 0x194C, symBinAddr: 0x100002E90, symSize: 0x28 }
  - { offsetInCU: 0x145D0, offset: 0x145D0, size: 0x8, addend: 0x0, symName: __ZNSt3__115basic_stringbufIcNS_11char_traitsIcEENS_9allocatorIcEEED1Ev, symObjAddr: 0x1974, symBinAddr: 0x100002EB8, symSize: 0x2C }
  - { offsetInCU: 0x145FD, offset: 0x145FD, size: 0x8, addend: 0x0, symName: __ZNSt3__115basic_stringbufIcNS_11char_traitsIcEENS_9allocatorIcEEED2Ev, symObjAddr: 0x19A0, symBinAddr: 0x100002EE4, symSize: 0x48 }
  - { offsetInCU: 0x1462A, offset: 0x1462A, size: 0x8, addend: 0x0, symName: __ZNKSt3__111__wrap_iterIP7LibraryE4baseB7v160006Ev, symObjAddr: 0x1A30, symBinAddr: 0x100002F74, symSize: 0x18 }
  - { offsetInCU: 0x14650, offset: 0x14650, size: 0x8, addend: 0x0, symName: __ZNSt3__114basic_ofstreamIcNS_11char_traitsIcEEED2Ev, symObjAddr: 0x1A48, symBinAddr: 0x100002F8C, symSize: 0x64 }
  - { offsetInCU: 0x1468A, offset: 0x1468A, size: 0x8, addend: 0x0, symName: __ZTv0_n24_NSt3__114basic_ofstreamIcNS_11char_traitsIcEEED1Ev, symObjAddr: 0x1AAC, symBinAddr: 0x100002FF0, symSize: 0x28 }
  - { offsetInCU: 0x146A1, offset: 0x146A1, size: 0x8, addend: 0x0, symName: __ZN7LibraryD2Ev, symObjAddr: 0x1AD4, symBinAddr: 0x100003018, symSize: 0x3C }
  - { offsetInCU: 0x146CD, offset: 0x146CD, size: 0x8, addend: 0x0, symName: __ZNSt3__114basic_ifstreamIcNS_11char_traitsIcEEED2Ev, symObjAddr: 0x1B10, symBinAddr: 0x100003054, symSize: 0x64 }
  - { offsetInCU: 0x14707, offset: 0x14707, size: 0x8, addend: 0x0, symName: __ZTv0_n24_NSt3__114basic_ifstreamIcNS_11char_traitsIcEEED1Ev, symObjAddr: 0x1B74, symBinAddr: 0x1000030B8, symSize: 0x28 }
  - { offsetInCU: 0x1471E, offset: 0x1471E, size: 0x8, addend: 0x0, symName: __ZNSt3__112basic_stringIcNS_11char_traitsIcEENS_9allocatorIcEEEC2B7v160006Ev, symObjAddr: 0x1B9C, symBinAddr: 0x1000030E0, symSize: 0x54 }
  - { offsetInCU: 0x1474D, offset: 0x1474D, size: 0x8, addend: 0x0, symName: __ZNSt3__117__compressed_pairINS_12basic_stringIcNS_11char_traitsIcEENS_9allocatorIcEEE5__repES5_EC1B7v160006INS_18__default_init_tagESA_EEOT_OT0_, symObjAddr: 0x1BF0, symBinAddr: 0x100003134, symSize: 0x3C }
  - { offsetInCU: 0x147A5, offset: 0x147A5, size: 0x8, addend: 0x0, symName: __ZNSt3__112basic_stringIcNS_11char_traitsIcEENS_9allocatorIcEEE14__default_initB7v160006Ev, symObjAddr: 0x1C48, symBinAddr: 0x10000318C, symSize: 0x40 }
  - { offsetInCU: 0x147CB, offset: 0x147CB, size: 0x8, addend: 0x0, symName: __ZNSt3__117__compressed_pairINS_12basic_stringIcNS_11char_traitsIcEENS_9allocatorIcEEE5__repES5_EC2B7v160006INS_18__default_init_tagESA_EEOT_OT0_, symObjAddr: 0x1C88, symBinAddr: 0x1000031CC, symSize: 0x3C }
  - { offsetInCU: 0x14823, offset: 0x14823, size: 0x8, addend: 0x0, symName: __ZNSt3__122__compressed_pair_elemINS_12basic_stringIcNS_11char_traitsIcEENS_9allocatorIcEEE5__repELi0ELb0EEC2B7v160006ENS_18__default_init_tagE, symObjAddr: 0x1CC4, symBinAddr: 0x100003208, symSize: 0x14 }
  - { offsetInCU: 0x14858, offset: 0x14858, size: 0x8, addend: 0x0, symName: __ZNSt3__122__compressed_pair_elemINS_9allocatorIcEELi1ELb1EEC2B7v160006ENS_18__default_init_tagE, symObjAddr: 0x1CD8, symBinAddr: 0x10000321C, symSize: 0x2C }
  - { offsetInCU: 0x1488D, offset: 0x1488D, size: 0x8, addend: 0x0, symName: __ZNSt3__19allocatorIcEC2B7v160006Ev, symObjAddr: 0x1D04, symBinAddr: 0x100003248, symSize: 0x2C }
  - { offsetInCU: 0x148B7, offset: 0x148B7, size: 0x8, addend: 0x0, symName: __ZNSt3__116__non_trivial_ifILb1ENS_9allocatorIcEEEC2B7v160006Ev, symObjAddr: 0x1D30, symBinAddr: 0x100003274, symSize: 0x14 }
  - { offsetInCU: 0x148E1, offset: 0x148E1, size: 0x8, addend: 0x0, symName: __ZNSt3__117__compressed_pairINS_12basic_stringIcNS_11char_traitsIcEENS_9allocatorIcEEE5__repES5_E5firstB7v160006Ev, symObjAddr: 0x1D44, symBinAddr: 0x100003288, symSize: 0x24 }
  - { offsetInCU: 0x14907, offset: 0x14907, size: 0x8, addend: 0x0, symName: __ZNSt3__122__compressed_pair_elemINS_12basic_stringIcNS_11char_traitsIcEENS_9allocatorIcEEE5__repELi0ELb0EE5__getB7v160006Ev, symObjAddr: 0x1D68, symBinAddr: 0x1000032AC, symSize: 0x14 }
  - { offsetInCU: 0x1492D, offset: 0x1492D, size: 0x8, addend: 0x0, symName: __ZNSt3__111char_traitsIcE6lengthEPKc, symObjAddr: 0x1F68, symBinAddr: 0x1000034AC, symSize: 0x34 }
  - { offsetInCU: 0x1496E, offset: 0x1496E, size: 0x8, addend: 0x0, symName: __ZNKSt3__113basic_ostreamIcNS_11char_traitsIcEEE6sentrycvbB7v160006Ev, symObjAddr: 0x1F9C, symBinAddr: 0x1000034E0, symSize: 0x1C }
  - { offsetInCU: 0x14994, offset: 0x14994, size: 0x8, addend: 0x0, symName: __ZNSt3__119ostreambuf_iteratorIcNS_11char_traitsIcEEEC1B7v160006ERNS_13basic_ostreamIcS2_EE, symObjAddr: 0x21F8, symBinAddr: 0x10000373C, symSize: 0x34 }
  - { offsetInCU: 0x149CC, offset: 0x149CC, size: 0x8, addend: 0x0, symName: __ZNKSt3__18ios_base5flagsB7v160006Ev, symObjAddr: 0x222C, symBinAddr: 0x100003770, symSize: 0x18 }
  - { offsetInCU: 0x149F4, offset: 0x149F4, size: 0x8, addend: 0x0, symName: __ZNKSt3__19basic_iosIcNS_11char_traitsIcEEE4fillB7v160006Ev, symObjAddr: 0x2244, symBinAddr: 0x100003788, symSize: 0x64 }
  - { offsetInCU: 0x14A1C, offset: 0x14A1C, size: 0x8, addend: 0x0, symName: __ZNKSt3__119ostreambuf_iteratorIcNS_11char_traitsIcEEE6failedB7v160006Ev, symObjAddr: 0x22A8, symBinAddr: 0x1000037EC, symSize: 0x24 }
  - { offsetInCU: 0x14A42, offset: 0x14A42, size: 0x8, addend: 0x0, symName: __ZNSt3__19basic_iosIcNS_11char_traitsIcEEE8setstateB7v160006Ej, symObjAddr: 0x22CC, symBinAddr: 0x100003810, symSize: 0x2C }
  - { offsetInCU: 0x14A77, offset: 0x14A77, size: 0x8, addend: 0x0, symName: __ZNKSt3__18ios_base5widthB7v160006Ev, symObjAddr: 0x22F8, symBinAddr: 0x10000383C, symSize: 0x18 }
  - { offsetInCU: 0x14A9F, offset: 0x14A9F, size: 0x8, addend: 0x0, symName: __ZNSt3__115basic_streambufIcNS_11char_traitsIcEEE5sputnB7v160006EPKcl, symObjAddr: 0x2310, symBinAddr: 0x100003854, symSize: 0x3C }
  - { offsetInCU: 0x14AE1, offset: 0x14AE1, size: 0x8, addend: 0x0, symName: __ZNSt3__112basic_stringIcNS_11char_traitsIcEENS_9allocatorIcEEEC1B7v160006Emc, symObjAddr: 0x234C, symBinAddr: 0x100003890, symSize: 0x3C }
  - { offsetInCU: 0x14B29, offset: 0x14B29, size: 0x8, addend: 0x0, symName: __ZNSt3__112basic_stringIcNS_11char_traitsIcEENS_9allocatorIcEEE4dataB7v160006Ev, symObjAddr: 0x2388, symBinAddr: 0x1000038CC, symSize: 0x28 }
  - { offsetInCU: 0x14B4F, offset: 0x14B4F, size: 0x8, addend: 0x0, symName: __ZNSt3__18ios_base5widthB7v160006El, symObjAddr: 0x23B0, symBinAddr: 0x1000038F4, symSize: 0x2C }
  - { offsetInCU: 0x14B95, offset: 0x14B95, size: 0x8, addend: 0x0, symName: __ZNSt3__112basic_stringIcNS_11char_traitsIcEENS_9allocatorIcEEEC2B7v160006Emc, symObjAddr: 0x23DC, symBinAddr: 0x100003920, symSize: 0x54 }
  - { offsetInCU: 0x14BDD, offset: 0x14BDD, size: 0x8, addend: 0x0, symName: __ZNSt3__112basic_stringIcNS_11char_traitsIcEENS_9allocatorIcEEE13__get_pointerB7v160006Ev, symObjAddr: 0x2444, symBinAddr: 0x100003988, symSize: 0x54 }
  - { offsetInCU: 0x14C03, offset: 0x14C03, size: 0x8, addend: 0x0, symName: __ZNKSt3__112basic_stringIcNS_11char_traitsIcEENS_9allocatorIcEEE9__is_longB7v160006Ev, symObjAddr: 0x2498, symBinAddr: 0x1000039DC, symSize: 0x38 }
  - { offsetInCU: 0x14C29, offset: 0x14C29, size: 0x8, addend: 0x0, symName: __ZNSt3__112basic_stringIcNS_11char_traitsIcEENS_9allocatorIcEEE18__get_long_pointerB7v160006Ev, symObjAddr: 0x24D0, symBinAddr: 0x100003A14, symSize: 0x28 }
  - { offsetInCU: 0x14C4F, offset: 0x14C4F, size: 0x8, addend: 0x0, symName: __ZNSt3__112basic_stringIcNS_11char_traitsIcEENS_9allocatorIcEEE19__get_short_pointerB7v160006Ev, symObjAddr: 0x24F8, symBinAddr: 0x100003A3C, symSize: 0x28 }
  - { offsetInCU: 0x14C75, offset: 0x14C75, size: 0x8, addend: 0x0, symName: __ZNKSt3__117__compressed_pairINS_12basic_stringIcNS_11char_traitsIcEENS_9allocatorIcEEE5__repES5_E5firstB7v160006Ev, symObjAddr: 0x2520, symBinAddr: 0x100003A64, symSize: 0x24 }
  - { offsetInCU: 0x14C9B, offset: 0x14C9B, size: 0x8, addend: 0x0, symName: __ZNKSt3__122__compressed_pair_elemINS_12basic_stringIcNS_11char_traitsIcEENS_9allocatorIcEEE5__repELi0ELb0EE5__getB7v160006Ev, symObjAddr: 0x2544, symBinAddr: 0x100003A88, symSize: 0x14 }
  - { offsetInCU: 0x14CC1, offset: 0x14CC1, size: 0x8, addend: 0x0, symName: __ZNSt3__114pointer_traitsIPcE10pointer_toB7v160006ERc, symObjAddr: 0x2558, symBinAddr: 0x100003A9C, symSize: 0x14 }
  - { offsetInCU: 0x14CE4, offset: 0x14CE4, size: 0x8, addend: 0x0, symName: __ZNSt3__119ostreambuf_iteratorIcNS_11char_traitsIcEEEC2B7v160006ERNS_13basic_ostreamIcS2_EE, symObjAddr: 0x256C, symBinAddr: 0x100003AB0, symSize: 0x54 }
  - { offsetInCU: 0x14D1C, offset: 0x14D1C, size: 0x8, addend: 0x0, symName: __ZNKSt3__19basic_iosIcNS_11char_traitsIcEEE5rdbufB7v160006Ev, symObjAddr: 0x25C0, symBinAddr: 0x100003B04, symSize: 0x24 }
  - { offsetInCU: 0x14D44, offset: 0x14D44, size: 0x8, addend: 0x0, symName: __ZNKSt3__18ios_base5rdbufB7v160006Ev, symObjAddr: 0x25E4, symBinAddr: 0x100003B28, symSize: 0x18 }
  - { offsetInCU: 0x14D6A, offset: 0x14D6A, size: 0x8, addend: 0x0, symName: __ZNSt3__111char_traitsIcE11eq_int_typeEii, symObjAddr: 0x25FC, symBinAddr: 0x100003B40, symSize: 0x28 }
  - { offsetInCU: 0x14D9B, offset: 0x14D9B, size: 0x8, addend: 0x0, symName: __ZNKSt3__19basic_iosIcNS_11char_traitsIcEEE5widenB7v160006Ec, symObjAddr: 0x2624, symBinAddr: 0x100003B68, symSize: 0x84 }
  - { offsetInCU: 0x14DFF, offset: 0x14DFF, size: 0x8, addend: 0x0, symName: __ZNKSt3__15ctypeIcE5widenB7v160006Ec, symObjAddr: 0x26D4, symBinAddr: 0x100003C18, symSize: 0x38 }
  - { offsetInCU: 0x14E34, offset: 0x14E34, size: 0x8, addend: 0x0, symName: __ZNSt3__18ios_base8setstateB7v160006Ej, symObjAddr: 0x270C, symBinAddr: 0x100003C50, symSize: 0x34 }
  - { offsetInCU: 0x14E6B, offset: 0x14E6B, size: 0x8, addend: 0x0, symName: __ZNSt3__16vectorI7LibraryNS_9allocatorIS1_EEEC2B7v160006Ev, symObjAddr: 0x2764, symBinAddr: 0x100003CA8, symSize: 0x58 }
  - { offsetInCU: 0x14E9A, offset: 0x14E9A, size: 0x8, addend: 0x0, symName: __ZNSt3__117__compressed_pairIP7LibraryNS_9allocatorIS1_EEEC1B7v160006IDnNS_18__default_init_tagEEEOT_OT0_, symObjAddr: 0x27BC, symBinAddr: 0x100003D00, symSize: 0x3C }
  - { offsetInCU: 0x14EF2, offset: 0x14EF2, size: 0x8, addend: 0x0, symName: __ZNSt3__117__compressed_pairIP7LibraryNS_9allocatorIS1_EEEC2B7v160006IDnNS_18__default_init_tagEEEOT_OT0_, symObjAddr: 0x2808, symBinAddr: 0x100003D4C, symSize: 0x40 }
  - { offsetInCU: 0x14F4A, offset: 0x14F4A, size: 0x8, addend: 0x0, symName: __ZNSt3__122__compressed_pair_elemIP7LibraryLi0ELb0EEC2B7v160006IDnvEEOT_, symObjAddr: 0x2848, symBinAddr: 0x100003D8C, symSize: 0x1C }
  - { offsetInCU: 0x14F8C, offset: 0x14F8C, size: 0x8, addend: 0x0, symName: __ZNSt3__122__compressed_pair_elemINS_9allocatorI7LibraryEELi1ELb1EEC2B7v160006ENS_18__default_init_tagE, symObjAddr: 0x2864, symBinAddr: 0x100003DA8, symSize: 0x2C }
  - { offsetInCU: 0x14FC1, offset: 0x14FC1, size: 0x8, addend: 0x0, symName: __ZNSt3__19allocatorI7LibraryEC2B7v160006Ev, symObjAddr: 0x2890, symBinAddr: 0x100003DD4, symSize: 0x2C }
  - { offsetInCU: 0x14FEB, offset: 0x14FEB, size: 0x8, addend: 0x0, symName: __ZNSt3__116__non_trivial_ifILb1ENS_9allocatorI7LibraryEEEC2B7v160006Ev, symObjAddr: 0x28BC, symBinAddr: 0x100003E00, symSize: 0x14 }
  - { offsetInCU: 0x15015, offset: 0x15015, size: 0x8, addend: 0x0, symName: __ZNSt3__16vectorI7LibraryNS_9allocatorIS1_EEED2B7v160006Ev, symObjAddr: 0x28D0, symBinAddr: 0x100003E14, symSize: 0x44 }
  - { offsetInCU: 0x1503F, offset: 0x1503F, size: 0x8, addend: 0x0, symName: __ZNSt3__16vectorI7LibraryNS_9allocatorIS1_EEE16__destroy_vectorC1ERS4_, symObjAddr: 0x2914, symBinAddr: 0x100003E58, symSize: 0x34 }
  - { offsetInCU: 0x15078, offset: 0x15078, size: 0x8, addend: 0x0, symName: __ZNSt3__16vectorI7LibraryNS_9allocatorIS1_EEE16__destroy_vectorclB7v160006Ev, symObjAddr: 0x2948, symBinAddr: 0x100003E8C, symSize: 0x9C }
  - { offsetInCU: 0x1509E, offset: 0x1509E, size: 0x8, addend: 0x0, symName: __ZNSt3__16vectorI7LibraryNS_9allocatorIS1_EEE16__destroy_vectorC2ERS4_, symObjAddr: 0x29E4, symBinAddr: 0x100003F28, symSize: 0x20 }
  - { offsetInCU: 0x150D7, offset: 0x150D7, size: 0x8, addend: 0x0, symName: __ZNKSt3__16vectorI7LibraryNS_9allocatorIS1_EEE17__annotate_deleteB7v160006Ev, symObjAddr: 0x2A04, symBinAddr: 0x100003F48, symSize: 0xD4 }
  - { offsetInCU: 0x150FD, offset: 0x150FD, size: 0x8, addend: 0x0, symName: __ZNSt3__16vectorI7LibraryNS_9allocatorIS1_EEE7__clearB7v160006Ev, symObjAddr: 0x2AE8, symBinAddr: 0x10000402C, symSize: 0x28 }
  - { offsetInCU: 0x15123, offset: 0x15123, size: 0x8, addend: 0x0, symName: __ZNSt3__116allocator_traitsINS_9allocatorI7LibraryEEE10deallocateB7v160006ERS3_PS2_m, symObjAddr: 0x2B10, symBinAddr: 0x100004054, symSize: 0x34 }
  - { offsetInCU: 0x15165, offset: 0x15165, size: 0x8, addend: 0x0, symName: __ZNSt3__16vectorI7LibraryNS_9allocatorIS1_EEE7__allocB7v160006Ev, symObjAddr: 0x2B44, symBinAddr: 0x100004088, symSize: 0x28 }
  - { offsetInCU: 0x1518B, offset: 0x1518B, size: 0x8, addend: 0x0, symName: __ZNKSt3__16vectorI7LibraryNS_9allocatorIS1_EEE8capacityB7v160006Ev, symObjAddr: 0x2B6C, symBinAddr: 0x1000040B0, symSize: 0x40 }
  - { offsetInCU: 0x151B1, offset: 0x151B1, size: 0x8, addend: 0x0, symName: __ZNKSt3__16vectorI7LibraryNS_9allocatorIS1_EEE31__annotate_contiguous_containerB7v160006EPKvS6_S6_S6_, symObjAddr: 0x2BAC, symBinAddr: 0x1000040F0, symSize: 0x20 }
  - { offsetInCU: 0x15207, offset: 0x15207, size: 0x8, addend: 0x0, symName: __ZNKSt3__16vectorI7LibraryNS_9allocatorIS1_EEE4dataB7v160006Ev, symObjAddr: 0x2BCC, symBinAddr: 0x100004110, symSize: 0x28 }
  - { offsetInCU: 0x1522D, offset: 0x1522D, size: 0x8, addend: 0x0, symName: __ZNKSt3__16vectorI7LibraryNS_9allocatorIS1_EEE4sizeB7v160006Ev, symObjAddr: 0x2BF4, symBinAddr: 0x100004138, symSize: 0x28 }
  - { offsetInCU: 0x15253, offset: 0x15253, size: 0x8, addend: 0x0, symName: __ZNSt3__16vectorI7LibraryNS_9allocatorIS1_EEE22__base_destruct_at_endB7v160006EPS1_, symObjAddr: 0x2C30, symBinAddr: 0x100004174, symSize: 0x8C }
  - { offsetInCU: 0x15297, offset: 0x15297, size: 0x8, addend: 0x0, symName: __ZNSt3__116allocator_traitsINS_9allocatorI7LibraryEEE7destroyB7v160006IS2_vEEvRS3_PT_, symObjAddr: 0x2CBC, symBinAddr: 0x100004200, symSize: 0x2C }
  - { offsetInCU: 0x152D4, offset: 0x152D4, size: 0x8, addend: 0x0, symName: __ZNSt3__19allocatorI7LibraryE7destroyB7v160006EPS1_, symObjAddr: 0x2CE8, symBinAddr: 0x10000422C, symSize: 0x28 }
  - { offsetInCU: 0x15308, offset: 0x15308, size: 0x8, addend: 0x0, symName: __ZNSt3__19allocatorI7LibraryE10deallocateB7v160006EPS1_m, symObjAddr: 0x2D10, symBinAddr: 0x100004254, symSize: 0x44 }
  - { offsetInCU: 0x1534A, offset: 0x1534A, size: 0x8, addend: 0x0, symName: __ZNSt3__117__compressed_pairIP7LibraryNS_9allocatorIS1_EEE6secondB7v160006Ev, symObjAddr: 0x2E7C, symBinAddr: 0x1000043C0, symSize: 0x24 }
  - { offsetInCU: 0x15370, offset: 0x15370, size: 0x8, addend: 0x0, symName: __ZNSt3__122__compressed_pair_elemINS_9allocatorI7LibraryEELi1ELb1EE5__getB7v160006Ev, symObjAddr: 0x2EA0, symBinAddr: 0x1000043E4, symSize: 0x14 }
  - { offsetInCU: 0x15396, offset: 0x15396, size: 0x8, addend: 0x0, symName: __ZNKSt3__16vectorI7LibraryNS_9allocatorIS1_EEE9__end_capB7v160006Ev, symObjAddr: 0x2EB4, symBinAddr: 0x1000043F8, symSize: 0x28 }
  - { offsetInCU: 0x153BC, offset: 0x153BC, size: 0x8, addend: 0x0, symName: __ZNKSt3__117__compressed_pairIP7LibraryNS_9allocatorIS1_EEE5firstB7v160006Ev, symObjAddr: 0x2EDC, symBinAddr: 0x100004420, symSize: 0x24 }
  - { offsetInCU: 0x153E2, offset: 0x153E2, size: 0x8, addend: 0x0, symName: __ZNKSt3__122__compressed_pair_elemIP7LibraryLi0ELb0EE5__getB7v160006Ev, symObjAddr: 0x2F00, symBinAddr: 0x100004444, symSize: 0x14 }
  - { offsetInCU: 0x15426, offset: 0x15426, size: 0x8, addend: 0x0, symName: __ZNKSt3__113basic_istreamIcNS_11char_traitsIcEEE6sentrycvbB7v160006Ev, symObjAddr: 0x314C, symBinAddr: 0x100004690, symSize: 0x1C }
  - { offsetInCU: 0x1544C, offset: 0x1544C, size: 0x8, addend: 0x0, symName: __ZNSt3__112basic_stringIcNS_11char_traitsIcEENS_9allocatorIcEEE5clearB7v160006Ev, symObjAddr: 0x3168, symBinAddr: 0x1000046AC, symSize: 0x88 }
  - { offsetInCU: 0x15474, offset: 0x15474, size: 0x8, addend: 0x0, symName: __ZNSt3__115basic_streambufIcNS_11char_traitsIcEEE6sbumpcB7v160006Ev, symObjAddr: 0x31F0, symBinAddr: 0x100004734, symSize: 0x78 }
  - { offsetInCU: 0x1549A, offset: 0x1549A, size: 0x8, addend: 0x0, symName: __ZNSt3__111char_traitsIcE12to_char_typeEi, symObjAddr: 0x3268, symBinAddr: 0x1000047AC, symSize: 0x18 }
  - { offsetInCU: 0x154BD, offset: 0x154BD, size: 0x8, addend: 0x0, symName: __ZNSt3__111char_traitsIcE2eqEcc, symObjAddr: 0x3280, symBinAddr: 0x1000047C4, symSize: 0x28 }
  - { offsetInCU: 0x154EE, offset: 0x154EE, size: 0x8, addend: 0x0, symName: __ZNKSt3__112basic_stringIcNS_11char_traitsIcEENS_9allocatorIcEEE4sizeB7v160006Ev, symObjAddr: 0x32A8, symBinAddr: 0x1000047EC, symSize: 0x54 }
  - { offsetInCU: 0x15514, offset: 0x15514, size: 0x8, addend: 0x0, symName: __ZNKSt3__112basic_stringIcNS_11char_traitsIcEENS_9allocatorIcEEE8max_sizeB7v160006Ev, symObjAddr: 0x32FC, symBinAddr: 0x100004840, symSize: 0xAC }
  - { offsetInCU: 0x15566, offset: 0x15566, size: 0x8, addend: 0x0, symName: __ZNSt3__18ios_base18__setstate_nothrowB7v160006Ej, symObjAddr: 0x33A8, symBinAddr: 0x1000048EC, symSize: 0x64 }
  - { offsetInCU: 0x1559B, offset: 0x1559B, size: 0x8, addend: 0x0, symName: __ZNKSt3__19basic_iosIcNS_11char_traitsIcEEE10exceptionsB7v160006Ev, symObjAddr: 0x340C, symBinAddr: 0x100004950, symSize: 0x24 }
  - { offsetInCU: 0x155C1, offset: 0x155C1, size: 0x8, addend: 0x0, symName: __ZNSt3__111char_traitsIcE6assignERcRKc, symObjAddr: 0x3440, symBinAddr: 0x100004984, symSize: 0x24 }
  - { offsetInCU: 0x155F2, offset: 0x155F2, size: 0x8, addend: 0x0, symName: __ZNSt3__112basic_stringIcNS_11char_traitsIcEENS_9allocatorIcEEE15__set_long_sizeB7v160006Em, symObjAddr: 0x3464, symBinAddr: 0x1000049A8, symSize: 0x38 }
  - { offsetInCU: 0x15627, offset: 0x15627, size: 0x8, addend: 0x0, symName: __ZNSt3__112basic_stringIcNS_11char_traitsIcEENS_9allocatorIcEEE16__set_short_sizeB7v160006Em, symObjAddr: 0x349C, symBinAddr: 0x1000049E0, symSize: 0x78 }
  - { offsetInCU: 0x1565C, offset: 0x1565C, size: 0x8, addend: 0x0, symName: __ZNSt3__111char_traitsIcE11to_int_typeEc, symObjAddr: 0x3514, symBinAddr: 0x100004A58, symSize: 0x14 }
  - { offsetInCU: 0x1567F, offset: 0x1567F, size: 0x8, addend: 0x0, symName: __ZNKSt3__112basic_stringIcNS_11char_traitsIcEENS_9allocatorIcEEE15__get_long_sizeB7v160006Ev, symObjAddr: 0x3528, symBinAddr: 0x100004A6C, symSize: 0x28 }
  - { offsetInCU: 0x156A5, offset: 0x156A5, size: 0x8, addend: 0x0, symName: __ZNKSt3__112basic_stringIcNS_11char_traitsIcEENS_9allocatorIcEEE16__get_short_sizeB7v160006Ev, symObjAddr: 0x3550, symBinAddr: 0x100004A94, symSize: 0x34 }
  - { offsetInCU: 0x156D5, offset: 0x156D5, size: 0x8, addend: 0x0, symName: __ZNSt3__116allocator_traitsINS_9allocatorIcEEE8max_sizeB7v160006IS2_vEEmRKS2_, symObjAddr: 0x3584, symBinAddr: 0x100004AC8, symSize: 0x24 }
  - { offsetInCU: 0x15703, offset: 0x15703, size: 0x8, addend: 0x0, symName: __ZNKSt3__112basic_stringIcNS_11char_traitsIcEENS_9allocatorIcEEE7__allocB7v160006Ev, symObjAddr: 0x35A8, symBinAddr: 0x100004AEC, symSize: 0x24 }
  - { offsetInCU: 0x15729, offset: 0x15729, size: 0x8, addend: 0x0, symName: __ZNSt3__114numeric_limitsImE3maxB7v160006Ev, symObjAddr: 0x35CC, symBinAddr: 0x100004B10, symSize: 0x14 }
  - { offsetInCU: 0x1573D, offset: 0x1573D, size: 0x8, addend: 0x0, symName: __ZNKSt3__19allocatorIcE8max_sizeB7v160006Ev, symObjAddr: 0x35E0, symBinAddr: 0x100004B24, symSize: 0x14 }
  - { offsetInCU: 0x15763, offset: 0x15763, size: 0x8, addend: 0x0, symName: __ZNKSt3__117__compressed_pairINS_12basic_stringIcNS_11char_traitsIcEENS_9allocatorIcEEE5__repES5_E6secondB7v160006Ev, symObjAddr: 0x35F4, symBinAddr: 0x100004B38, symSize: 0x24 }
  - { offsetInCU: 0x15789, offset: 0x15789, size: 0x8, addend: 0x0, symName: __ZNKSt3__122__compressed_pair_elemINS_9allocatorIcEELi1ELb1EE5__getB7v160006Ev, symObjAddr: 0x3618, symBinAddr: 0x100004B5C, symSize: 0x14 }
  - { offsetInCU: 0x157AF, offset: 0x157AF, size: 0x8, addend: 0x0, symName: __ZNSt3__123__libcpp_numeric_limitsImLb1EE3maxB7v160006Ev, symObjAddr: 0x362C, symBinAddr: 0x100004B70, symSize: 0x8 }
  - { offsetInCU: 0x157C3, offset: 0x157C3, size: 0x8, addend: 0x0, symName: __ZNKSt3__18ios_base10exceptionsB7v160006Ev, symObjAddr: 0x3634, symBinAddr: 0x100004B78, symSize: 0x18 }
  - { offsetInCU: 0x157EB, offset: 0x157EB, size: 0x8, addend: 0x0, symName: __ZNSt3__19basic_iosIcNS_11char_traitsIcEEEC2B7v160006Ev, symObjAddr: 0x364C, symBinAddr: 0x100004B90, symSize: 0x44 }
  - { offsetInCU: 0x15815, offset: 0x15815, size: 0x8, addend: 0x0, symName: __ZNSt3__113basic_istreamIcNS_11char_traitsIcEEEC2B7v160006EPNS_15basic_streambufIcS2_EE, symObjAddr: 0x3690, symBinAddr: 0x100004BD4, symSize: 0x64 }
  - { offsetInCU: 0x1585A, offset: 0x1585A, size: 0x8, addend: 0x0, symName: __ZNSt3__115basic_stringbufIcNS_11char_traitsIcEENS_9allocatorIcEEEC1B7v160006ERKNS_12basic_stringIcS2_S4_EEj, symObjAddr: 0x36F4, symBinAddr: 0x100004C38, symSize: 0x3C }
  - { offsetInCU: 0x158A0, offset: 0x158A0, size: 0x8, addend: 0x0, symName: __ZNSt3__18ios_baseC2B7v160006Ev, symObjAddr: 0x3730, symBinAddr: 0x100004C74, symSize: 0x24 }
  - { offsetInCU: 0x158CA, offset: 0x158CA, size: 0x8, addend: 0x0, symName: __ZNSt3__19basic_iosIcNS_11char_traitsIcEEE4initB7v160006EPNS_15basic_streambufIcS2_EE, symObjAddr: 0x3754, symBinAddr: 0x100004C98, symSize: 0x44 }
  - { offsetInCU: 0x15901, offset: 0x15901, size: 0x8, addend: 0x0, symName: __ZNSt3__115basic_stringbufIcNS_11char_traitsIcEENS_9allocatorIcEEEC2B7v160006ERKNS_12basic_stringIcS2_S4_EEj, symObjAddr: 0x3798, symBinAddr: 0x100004CDC, symSize: 0xB4 }
  - { offsetInCU: 0x15947, offset: 0x15947, size: 0x8, addend: 0x0, symName: __ZNKSt3__112basic_stringIcNS_11char_traitsIcEENS_9allocatorIcEEE13get_allocatorB7v160006Ev, symObjAddr: 0x384C, symBinAddr: 0x100004D90, symSize: 0x24 }
  - { offsetInCU: 0x1596D, offset: 0x1596D, size: 0x8, addend: 0x0, symName: __ZNSt3__112basic_stringIcNS_11char_traitsIcEENS_9allocatorIcEEEC1B7v160006ERKS4_, symObjAddr: 0x3870, symBinAddr: 0x100004DB4, symSize: 0x34 }
  - { offsetInCU: 0x159A6, offset: 0x159A6, size: 0x8, addend: 0x0, symName: __ZNSt3__112basic_stringIcNS_11char_traitsIcEENS_9allocatorIcEEEC2B7v160006ERKS4_, symObjAddr: 0x38A4, symBinAddr: 0x100004DE8, symSize: 0x50 }
  - { offsetInCU: 0x159DF, offset: 0x159DF, size: 0x8, addend: 0x0, symName: __ZNSt3__117__compressed_pairINS_12basic_stringIcNS_11char_traitsIcEENS_9allocatorIcEEE5__repES5_EC1B7v160006INS_18__default_init_tagERKS5_EEOT_OT0_, symObjAddr: 0x38F4, symBinAddr: 0x100004E38, symSize: 0x3C }
  - { offsetInCU: 0x15A37, offset: 0x15A37, size: 0x8, addend: 0x0, symName: __ZNSt3__117__compressed_pairINS_12basic_stringIcNS_11char_traitsIcEENS_9allocatorIcEEE5__repES5_EC2B7v160006INS_18__default_init_tagERKS5_EEOT_OT0_, symObjAddr: 0x3930, symBinAddr: 0x100004E74, symSize: 0x40 }
  - { offsetInCU: 0x15A8F, offset: 0x15A8F, size: 0x8, addend: 0x0, symName: __ZNSt3__122__compressed_pair_elemINS_9allocatorIcEELi1ELb1EEC2B7v160006IRKS2_vEEOT_, symObjAddr: 0x3970, symBinAddr: 0x100004EB4, symSize: 0x18 }
  - { offsetInCU: 0x15AD1, offset: 0x15AD1, size: 0x8, addend: 0x0, symName: __ZNSt3__114numeric_limitsIlE3maxB7v160006Ev, symObjAddr: 0x3C90, symBinAddr: 0x1000051D4, symSize: 0x14 }
  - { offsetInCU: 0x15AE5, offset: 0x15AE5, size: 0x8, addend: 0x0, symName: __ZNSt3__115basic_streambufIcNS_11char_traitsIcEEE5sgetcB7v160006Ev, symObjAddr: 0x3CA4, symBinAddr: 0x1000051E8, symSize: 0x70 }
  - { offsetInCU: 0x15B0B, offset: 0x15B0B, size: 0x8, addend: 0x0, symName: __ZNKSt3__15ctypeIcE2isB7v160006Ejc, symObjAddr: 0x3D14, symBinAddr: 0x100005258, symSize: 0x7C }
  - { offsetInCU: 0x15B4F, offset: 0x15B4F, size: 0x8, addend: 0x0, symName: __ZNSt3__123__libcpp_numeric_limitsIlLb1EE3maxB7v160006Ev, symObjAddr: 0x3D90, symBinAddr: 0x1000052D4, symSize: 0x8 }
  - { offsetInCU: 0x15B62, offset: 0x15B62, size: 0x8, addend: 0x0, symName: __Z7isasciii, symObjAddr: 0x3D98, symBinAddr: 0x1000052DC, symSize: 0x24 }
  - { offsetInCU: 0x15B8F, offset: 0x15B8F, size: 0x8, addend: 0x0, symName: __ZNSt3__16vectorI7LibraryNS_9allocatorIS1_EEE9__end_capB7v160006Ev, symObjAddr: 0x3DBC, symBinAddr: 0x100005300, symSize: 0x28 }
  - { offsetInCU: 0x15BB5, offset: 0x15BB5, size: 0x8, addend: 0x0, symName: __ZNSt3__16vectorI7LibraryNS_9allocatorIS1_EEE22__construct_one_at_endB7v160006IJRKS1_EEEvDpOT_, symObjAddr: 0x3DE4, symBinAddr: 0x100005328, symSize: 0x90 }
  - { offsetInCU: 0x15C04, offset: 0x15C04, size: 0x8, addend: 0x0, symName: __ZNSt3__16vectorI7LibraryNS_9allocatorIS1_EEE21__push_back_slow_pathIRKS1_EEvOT_, symObjAddr: 0x3E74, symBinAddr: 0x1000053B8, symSize: 0xD8 }
  - { offsetInCU: 0x15C62, offset: 0x15C62, size: 0x8, addend: 0x0, symName: __ZNSt3__117__compressed_pairIP7LibraryNS_9allocatorIS1_EEE5firstB7v160006Ev, symObjAddr: 0x3F4C, symBinAddr: 0x100005490, symSize: 0x24 }
  - { offsetInCU: 0x15C88, offset: 0x15C88, size: 0x8, addend: 0x0, symName: __ZNSt3__122__compressed_pair_elemIP7LibraryLi0ELb0EE5__getB7v160006Ev, symObjAddr: 0x3F70, symBinAddr: 0x1000054B4, symSize: 0x14 }
  - { offsetInCU: 0x15CC7, offset: 0x15CC7, size: 0x8, addend: 0x0, symName: __ZNSt3__16vectorI7LibraryNS_9allocatorIS1_EEE21_ConstructTransactionC1B7v160006ERS4_m, symObjAddr: 0x3F84, symBinAddr: 0x1000054C8, symSize: 0x3C }
  - { offsetInCU: 0x15D0F, offset: 0x15D0F, size: 0x8, addend: 0x0, symName: __ZNSt3__116allocator_traitsINS_9allocatorI7LibraryEEE9constructB7v160006IS2_JRKS2_EvEEvRS3_PT_DpOT0_, symObjAddr: 0x3FC0, symBinAddr: 0x100005504, symSize: 0x34 }
  - { offsetInCU: 0x15D66, offset: 0x15D66, size: 0x8, addend: 0x0, symName: __ZNSt3__16vectorI7LibraryNS_9allocatorIS1_EEE21_ConstructTransactionD1B7v160006Ev, symObjAddr: 0x3FF4, symBinAddr: 0x100005538, symSize: 0x2C }
  - { offsetInCU: 0x15D90, offset: 0x15D90, size: 0x8, addend: 0x0, symName: __ZNSt3__16vectorI7LibraryNS_9allocatorIS1_EEE21_ConstructTransactionC2B7v160006ERS4_m, symObjAddr: 0x4020, symBinAddr: 0x100005564, symSize: 0x4C }
  - { offsetInCU: 0x15DD8, offset: 0x15DD8, size: 0x8, addend: 0x0, symName: __ZNSt3__19allocatorI7LibraryE9constructB7v160006IS1_JRKS1_EEEvPT_DpOT0_, symObjAddr: 0x406C, symBinAddr: 0x1000055B0, symSize: 0x30 }
  - { offsetInCU: 0x15E2E, offset: 0x15E2E, size: 0x8, addend: 0x0, symName: __ZN7LibraryC1ERKS_, symObjAddr: 0x409C, symBinAddr: 0x1000055E0, symSize: 0x34 }
  - { offsetInCU: 0x15E63, offset: 0x15E63, size: 0x8, addend: 0x0, symName: __ZN7LibraryC2ERKS_, symObjAddr: 0x40D0, symBinAddr: 0x100005614, symSize: 0x88 }
  - { offsetInCU: 0x15E98, offset: 0x15E98, size: 0x8, addend: 0x0, symName: __ZNSt3__16vectorI7LibraryNS_9allocatorIS1_EEE21_ConstructTransactionD2B7v160006Ev, symObjAddr: 0x4158, symBinAddr: 0x10000569C, symSize: 0x20 }
  - { offsetInCU: 0x15EC2, offset: 0x15EC2, size: 0x8, addend: 0x0, symName: __ZNKSt3__16vectorI7LibraryNS_9allocatorIS1_EEE11__recommendB7v160006Em, symObjAddr: 0x4178, symBinAddr: 0x1000056BC, symSize: 0xB4 }
  - { offsetInCU: 0x15F17, offset: 0x15F17, size: 0x8, addend: 0x0, symName: __ZNSt3__114__split_bufferI7LibraryRNS_9allocatorIS1_EEEC1EmmS4_, symObjAddr: 0x422C, symBinAddr: 0x100005770, symSize: 0x44 }
  - { offsetInCU: 0x15F6D, offset: 0x15F6D, size: 0x8, addend: 0x0, symName: __ZNSt3__114__split_bufferI7LibraryRNS_9allocatorIS1_EEED1Ev, symObjAddr: 0x4388, symBinAddr: 0x1000058CC, symSize: 0x2C }
  - { offsetInCU: 0x15F99, offset: 0x15F99, size: 0x8, addend: 0x0, symName: __ZNKSt3__16vectorI7LibraryNS_9allocatorIS1_EEE8max_sizeEv, symObjAddr: 0x43B4, symBinAddr: 0x1000058F8, symSize: 0x60 }
  - { offsetInCU: 0x15FC1, offset: 0x15FC1, size: 0x8, addend: 0x0, symName: __ZNKSt3__16vectorI7LibraryNS_9allocatorIS1_EEE20__throw_length_errorB7v160006Ev, symObjAddr: 0x4414, symBinAddr: 0x100005958, symSize: 0x1C }
  - { offsetInCU: 0x15FF1, offset: 0x15FF1, size: 0x8, addend: 0x0, symName: __ZNSt3__116allocator_traitsINS_9allocatorI7LibraryEEE8max_sizeB7v160006IS3_vEEmRKS3_, symObjAddr: 0x4488, symBinAddr: 0x1000059CC, symSize: 0x24 }
  - { offsetInCU: 0x1601F, offset: 0x1601F, size: 0x8, addend: 0x0, symName: __ZNKSt3__16vectorI7LibraryNS_9allocatorIS1_EEE7__allocB7v160006Ev, symObjAddr: 0x44AC, symBinAddr: 0x1000059F0, symSize: 0x28 }
  - { offsetInCU: 0x16059, offset: 0x16059, size: 0x8, addend: 0x0, symName: __ZNKSt3__16__lessImmEclB7v160006ERKmS3_, symObjAddr: 0x4528, symBinAddr: 0x100005A6C, symSize: 0x34 }
  - { offsetInCU: 0x1609B, offset: 0x1609B, size: 0x8, addend: 0x0, symName: __ZNKSt3__19allocatorI7LibraryE8max_sizeB7v160006Ev, symObjAddr: 0x455C, symBinAddr: 0x100005AA0, symSize: 0x20 }
  - { offsetInCU: 0x160C1, offset: 0x160C1, size: 0x8, addend: 0x0, symName: __ZNKSt3__117__compressed_pairIP7LibraryNS_9allocatorIS1_EEE6secondB7v160006Ev, symObjAddr: 0x457C, symBinAddr: 0x100005AC0, symSize: 0x24 }
  - { offsetInCU: 0x160E7, offset: 0x160E7, size: 0x8, addend: 0x0, symName: __ZNKSt3__122__compressed_pair_elemINS_9allocatorI7LibraryEELi1ELb1EE5__getB7v160006Ev, symObjAddr: 0x45A0, symBinAddr: 0x100005AE4, symSize: 0x14 }
  - { offsetInCU: 0x1610D, offset: 0x1610D, size: 0x8, addend: 0x0, symName: __ZNSt12length_errorC1B7v160006EPKc, symObjAddr: 0x4618, symBinAddr: 0x100005B5C, symSize: 0x34 }
  - { offsetInCU: 0x16145, offset: 0x16145, size: 0x8, addend: 0x0, symName: __ZNSt12length_errorC2B7v160006EPKc, symObjAddr: 0x464C, symBinAddr: 0x100005B90, symSize: 0x4C }
  - { offsetInCU: 0x1617D, offset: 0x1617D, size: 0x8, addend: 0x0, symName: __ZNSt3__114__split_bufferI7LibraryRNS_9allocatorIS1_EEEC2EmmS4_, symObjAddr: 0x46EC, symBinAddr: 0x100005C30, symSize: 0xE0 }
  - { offsetInCU: 0x161F0, offset: 0x161F0, size: 0x8, addend: 0x0, symName: __ZNSt3__117__compressed_pairIP7LibraryRNS_9allocatorIS1_EEEC1B7v160006IDnS5_EEOT_OT0_, symObjAddr: 0x47CC, symBinAddr: 0x100005D10, symSize: 0x3C }
  - { offsetInCU: 0x16248, offset: 0x16248, size: 0x8, addend: 0x0, symName: __ZNSt3__114__split_bufferI7LibraryRNS_9allocatorIS1_EEE7__allocB7v160006Ev, symObjAddr: 0x4848, symBinAddr: 0x100005D8C, symSize: 0x28 }
  - { offsetInCU: 0x1626E, offset: 0x1626E, size: 0x8, addend: 0x0, symName: __ZNSt3__114__split_bufferI7LibraryRNS_9allocatorIS1_EEE9__end_capB7v160006Ev, symObjAddr: 0x4870, symBinAddr: 0x100005DB4, symSize: 0x28 }
  - { offsetInCU: 0x16294, offset: 0x16294, size: 0x8, addend: 0x0, symName: __ZNSt3__117__compressed_pairIP7LibraryRNS_9allocatorIS1_EEEC2B7v160006IDnS5_EEOT_OT0_, symObjAddr: 0x4898, symBinAddr: 0x100005DDC, symSize: 0x48 }
  - { offsetInCU: 0x162EC, offset: 0x162EC, size: 0x8, addend: 0x0, symName: __ZNSt3__122__compressed_pair_elemIRNS_9allocatorI7LibraryEELi1ELb0EEC2B7v160006IS4_vEEOT_, symObjAddr: 0x48E0, symBinAddr: 0x100005E24, symSize: 0x20 }
  - { offsetInCU: 0x1632E, offset: 0x1632E, size: 0x8, addend: 0x0, symName: __ZNSt3__19allocatorI7LibraryE8allocateB7v160006Em, symObjAddr: 0x4900, symBinAddr: 0x100005E44, symSize: 0x5C }
  - { offsetInCU: 0x16362, offset: 0x16362, size: 0x8, addend: 0x0, symName: __ZNSt3__117__compressed_pairIP7LibraryRNS_9allocatorIS1_EEE6secondB7v160006Ev, symObjAddr: 0x4A40, symBinAddr: 0x100005F84, symSize: 0x28 }
  - { offsetInCU: 0x16388, offset: 0x16388, size: 0x8, addend: 0x0, symName: __ZNSt3__122__compressed_pair_elemIRNS_9allocatorI7LibraryEELi1ELb0EE5__getB7v160006Ev, symObjAddr: 0x4A68, symBinAddr: 0x100005FAC, symSize: 0x18 }
  - { offsetInCU: 0x163AE, offset: 0x163AE, size: 0x8, addend: 0x0, symName: __ZNSt3__117__compressed_pairIP7LibraryRNS_9allocatorIS1_EEE5firstB7v160006Ev, symObjAddr: 0x4A80, symBinAddr: 0x100005FC4, symSize: 0x24 }
  - { offsetInCU: 0x163D4, offset: 0x163D4, size: 0x8, addend: 0x0, symName: __ZNSt3__116reverse_iteratorIP7LibraryEC1B7v160006ES2_, symObjAddr: 0x4BD0, symBinAddr: 0x100006114, symSize: 0x34 }
  - { offsetInCU: 0x1640C, offset: 0x1640C, size: 0x8, addend: 0x0, symName: __ZNKSt3__116reverse_iteratorIP7LibraryE4baseB7v160006Ev, symObjAddr: 0x4C04, symBinAddr: 0x100006148, symSize: 0x18 }
  - { offsetInCU: 0x16432, offset: 0x16432, size: 0x8, addend: 0x0, symName: __ZNKSt3__16vectorI7LibraryNS_9allocatorIS1_EEE14__annotate_newB7v160006Em, symObjAddr: 0x4C58, symBinAddr: 0x10000619C, symSize: 0xC8 }
  - { offsetInCU: 0x16467, offset: 0x16467, size: 0x8, addend: 0x0, symName: __ZNSt3__129_AllocatorDestroyRangeReverseINS_9allocatorI7LibraryEENS_16reverse_iteratorIPS2_EEEC1B7v160006ERS3_RS6_S9_, symObjAddr: 0x4D7C, symBinAddr: 0x1000062C0, symSize: 0x44 }
  - { offsetInCU: 0x164C3, offset: 0x164C3, size: 0x8, addend: 0x0, symName: __ZNSt3__116allocator_traitsINS_9allocatorI7LibraryEEE9constructB7v160006IS2_JS2_EvEEvRS3_PT_DpOT0_, symObjAddr: 0x4E08, symBinAddr: 0x10000634C, symSize: 0x34 }
  - { offsetInCU: 0x1651A, offset: 0x1651A, size: 0x8, addend: 0x0, symName: __ZNKSt3__116reverse_iteratorIP7LibraryEdeB7v160006Ev, symObjAddr: 0x4E60, symBinAddr: 0x1000063A4, symSize: 0x28 }
  - { offsetInCU: 0x1654E, offset: 0x1654E, size: 0x8, addend: 0x0, symName: __ZNSt3__116reverse_iteratorIP7LibraryEppB7v160006Ev, symObjAddr: 0x4E88, symBinAddr: 0x1000063CC, symSize: 0x20 }
  - { offsetInCU: 0x16574, offset: 0x16574, size: 0x8, addend: 0x0, symName: __ZNSt3__128__exception_guard_exceptionsINS_29_AllocatorDestroyRangeReverseINS_9allocatorI7LibraryEENS_16reverse_iteratorIPS3_EEEEE10__completeB7v160006Ev, symObjAddr: 0x4EA8, symBinAddr: 0x1000063EC, symSize: 0x1C }
  - { offsetInCU: 0x1659A, offset: 0x1659A, size: 0x8, addend: 0x0, symName: __ZNSt3__128__exception_guard_exceptionsINS_29_AllocatorDestroyRangeReverseINS_9allocatorI7LibraryEENS_16reverse_iteratorIPS3_EEEEED1B7v160006Ev, symObjAddr: 0x4EC4, symBinAddr: 0x100006408, symSize: 0x2C }
  - { offsetInCU: 0x165C4, offset: 0x165C4, size: 0x8, addend: 0x0, symName: __ZNSt3__128__exception_guard_exceptionsINS_29_AllocatorDestroyRangeReverseINS_9allocatorI7LibraryEENS_16reverse_iteratorIPS3_EEEEEC1B7v160006ES8_, symObjAddr: 0x4EF0, symBinAddr: 0x100006434, symSize: 0x34 }
  - { offsetInCU: 0x165FD, offset: 0x165FD, size: 0x8, addend: 0x0, symName: __ZNSt3__128__exception_guard_exceptionsINS_29_AllocatorDestroyRangeReverseINS_9allocatorI7LibraryEENS_16reverse_iteratorIPS3_EEEEEC2B7v160006ES8_, symObjAddr: 0x4F24, symBinAddr: 0x100006468, symSize: 0x30 }
  - { offsetInCU: 0x16636, offset: 0x16636, size: 0x8, addend: 0x0, symName: __ZNSt3__129_AllocatorDestroyRangeReverseINS_9allocatorI7LibraryEENS_16reverse_iteratorIPS2_EEEC2B7v160006ERS3_RS6_S9_, symObjAddr: 0x4F54, symBinAddr: 0x100006498, symSize: 0x38 }
  - { offsetInCU: 0x1668D, offset: 0x1668D, size: 0x8, addend: 0x0, symName: __ZNSt3__19allocatorI7LibraryE9constructB7v160006IS1_JS1_EEEvPT_DpOT0_, symObjAddr: 0x4F8C, symBinAddr: 0x1000064D0, symSize: 0x30 }
  - { offsetInCU: 0x166E3, offset: 0x166E3, size: 0x8, addend: 0x0, symName: __ZN7LibraryC1EOS_, symObjAddr: 0x4FBC, symBinAddr: 0x100006500, symSize: 0x34 }
  - { offsetInCU: 0x16718, offset: 0x16718, size: 0x8, addend: 0x0, symName: __ZN7LibraryC2EOS_, symObjAddr: 0x4FF0, symBinAddr: 0x100006534, symSize: 0x5C }
  - { offsetInCU: 0x1674D, offset: 0x1674D, size: 0x8, addend: 0x0, symName: __ZNSt3__112basic_stringIcNS_11char_traitsIcEENS_9allocatorIcEEEC1B7v160006EOS5_, symObjAddr: 0x504C, symBinAddr: 0x100006590, symSize: 0x34 }
  - { offsetInCU: 0x16786, offset: 0x16786, size: 0x8, addend: 0x0, symName: __ZNSt3__112basic_stringIcNS_11char_traitsIcEENS_9allocatorIcEEEC2B7v160006EOS5_, symObjAddr: 0x5080, symBinAddr: 0x1000065C4, symSize: 0x80 }
  - { offsetInCU: 0x167C4, offset: 0x167C4, size: 0x8, addend: 0x0, symName: __ZNSt3__119__to_address_helperINS_16reverse_iteratorIP7LibraryEEvE6__callB7v160006ERKS4_, symObjAddr: 0x5114, symBinAddr: 0x100006658, symSize: 0x38 }
  - { offsetInCU: 0x167E7, offset: 0x167E7, size: 0x8, addend: 0x0, symName: __ZNKSt3__116reverse_iteratorIP7LibraryEptB7v160006Ev, symObjAddr: 0x514C, symBinAddr: 0x100006690, symSize: 0x24 }
  - { offsetInCU: 0x1680D, offset: 0x1680D, size: 0x8, addend: 0x0, symName: __ZNSt3__128__exception_guard_exceptionsINS_29_AllocatorDestroyRangeReverseINS_9allocatorI7LibraryEENS_16reverse_iteratorIPS3_EEEEED2B7v160006Ev, symObjAddr: 0x5170, symBinAddr: 0x1000066B4, symSize: 0x50 }
  - { offsetInCU: 0x16837, offset: 0x16837, size: 0x8, addend: 0x0, symName: __ZNKSt3__129_AllocatorDestroyRangeReverseINS_9allocatorI7LibraryEENS_16reverse_iteratorIPS2_EEEclB7v160006Ev, symObjAddr: 0x51C0, symBinAddr: 0x100006704, symSize: 0xB4 }
  - { offsetInCU: 0x1685E, offset: 0x1685E, size: 0x8, addend: 0x0, symName: __ZNSt3__116reverse_iteratorINS0_IP7LibraryEEEC1B7v160006ES3_, symObjAddr: 0x52E4, symBinAddr: 0x100006828, symSize: 0x3C }
  - { offsetInCU: 0x16896, offset: 0x16896, size: 0x8, addend: 0x0, symName: __ZNSt3__116reverse_iteratorINS0_IP7LibraryEEEppB7v160006Ev, symObjAddr: 0x53A4, symBinAddr: 0x1000068E8, symSize: 0x30 }
  - { offsetInCU: 0x168BC, offset: 0x168BC, size: 0x8, addend: 0x0, symName: __ZNKSt3__116reverse_iteratorINS0_IP7LibraryEEE4baseB7v160006Ev, symObjAddr: 0x53D4, symBinAddr: 0x100006918, symSize: 0x24 }
  - { offsetInCU: 0x168E7, offset: 0x168E7, size: 0x8, addend: 0x0, symName: __ZNSt3__119__to_address_helperINS_16reverse_iteratorINS1_IP7LibraryEEEEvE6__callB7v160006ERKS5_, symObjAddr: 0x53F8, symBinAddr: 0x10000693C, symSize: 0x38 }
  - { offsetInCU: 0x1690A, offset: 0x1690A, size: 0x8, addend: 0x0, symName: __ZNKSt3__116reverse_iteratorINS0_IP7LibraryEEEptB7v160006Ev, symObjAddr: 0x5430, symBinAddr: 0x100006974, symSize: 0x24 }
  - { offsetInCU: 0x16930, offset: 0x16930, size: 0x8, addend: 0x0, symName: __ZNKSt3__116reverse_iteratorINS0_IP7LibraryEEEdeB7v160006Ev, symObjAddr: 0x5454, symBinAddr: 0x100006998, symSize: 0x34 }
  - { offsetInCU: 0x16964, offset: 0x16964, size: 0x8, addend: 0x0, symName: __ZNSt3__116reverse_iteratorIP7LibraryEmmB7v160006Ev, symObjAddr: 0x5488, symBinAddr: 0x1000069CC, symSize: 0x20 }
  - { offsetInCU: 0x1698A, offset: 0x1698A, size: 0x8, addend: 0x0, symName: __ZNSt3__116reverse_iteratorINS0_IP7LibraryEEEC2B7v160006ES3_, symObjAddr: 0x54A8, symBinAddr: 0x1000069EC, symSize: 0x2C }
  - { offsetInCU: 0x169C2, offset: 0x169C2, size: 0x8, addend: 0x0, symName: __ZNSt3__116reverse_iteratorIP7LibraryEC2B7v160006ES2_, symObjAddr: 0x54D4, symBinAddr: 0x100006A18, symSize: 0x28 }
  - { offsetInCU: 0x169FA, offset: 0x169FA, size: 0x8, addend: 0x0, symName: __ZNSt3__114__split_bufferI7LibraryRNS_9allocatorIS1_EEED2Ev, symObjAddr: 0x54FC, symBinAddr: 0x100006A40, symSize: 0x8C }
  - { offsetInCU: 0x16A26, offset: 0x16A26, size: 0x8, addend: 0x0, symName: __ZNSt3__114__split_bufferI7LibraryRNS_9allocatorIS1_EEE5clearB7v160006Ev, symObjAddr: 0x5588, symBinAddr: 0x100006ACC, symSize: 0x28 }
  - { offsetInCU: 0x16A4C, offset: 0x16A4C, size: 0x8, addend: 0x0, symName: __ZNKSt3__114__split_bufferI7LibraryRNS_9allocatorIS1_EEE8capacityB7v160006Ev, symObjAddr: 0x55B0, symBinAddr: 0x100006AF4, symSize: 0x40 }
  - { offsetInCU: 0x16A72, offset: 0x16A72, size: 0x8, addend: 0x0, symName: __ZNSt3__114__split_bufferI7LibraryRNS_9allocatorIS1_EEE17__destruct_at_endB7v160006EPS1_, symObjAddr: 0x55F0, symBinAddr: 0x100006B34, symSize: 0x2C }
  - { offsetInCU: 0x16AA6, offset: 0x16AA6, size: 0x8, addend: 0x0, symName: __ZNSt3__114__split_bufferI7LibraryRNS_9allocatorIS1_EEE17__destruct_at_endB7v160006EPS1_NS_17integral_constantIbLb0EEE, symObjAddr: 0x561C, symBinAddr: 0x100006B60, symSize: 0x80 }
  - { offsetInCU: 0x16AE7, offset: 0x16AE7, size: 0x8, addend: 0x0, symName: __ZNKSt3__114__split_bufferI7LibraryRNS_9allocatorIS1_EEE9__end_capB7v160006Ev, symObjAddr: 0x569C, symBinAddr: 0x100006BE0, symSize: 0x28 }
  - { offsetInCU: 0x16B0D, offset: 0x16B0D, size: 0x8, addend: 0x0, symName: __ZNKSt3__117__compressed_pairIP7LibraryRNS_9allocatorIS1_EEE5firstB7v160006Ev, symObjAddr: 0x56C4, symBinAddr: 0x100006C08, symSize: 0x24 }
  - { offsetInCU: 0x16B33, offset: 0x16B33, size: 0x8, addend: 0x0, symName: __ZNSt3__113basic_ostreamIcNS_11char_traitsIcEEEC2B7v160006EPNS_15basic_streambufIcS2_EE, symObjAddr: 0x56E8, symBinAddr: 0x100006C2C, symSize: 0x60 }
  - { offsetInCU: 0x16B78, offset: 0x16B78, size: 0x8, addend: 0x0, symName: __ZNKSt3__113basic_filebufIcNS_11char_traitsIcEEE7is_openEv, symObjAddr: 0x5748, symBinAddr: 0x100006C8C, symSize: 0x24 }
  - { offsetInCU: 0x16BA0, offset: 0x16BA0, size: 0x8, addend: 0x0, symName: __ZNSt3__16vectorI7LibraryNS_9allocatorIS1_EEE11__make_iterB7v160006EPS1_, symObjAddr: 0x576C, symBinAddr: 0x100006CB0, symSize: 0x34 }
  - { offsetInCU: 0x16BD5, offset: 0x16BD5, size: 0x8, addend: 0x0, symName: __ZNSt3__111__wrap_iterIP7LibraryEC1B7v160006EPKvS2_, symObjAddr: 0x57A0, symBinAddr: 0x100006CE4, symSize: 0x3C }
  - { offsetInCU: 0x16C1B, offset: 0x16C1B, size: 0x8, addend: 0x0, symName: __ZNSt3__111__wrap_iterIP7LibraryEC2B7v160006EPKvS2_, symObjAddr: 0x57DC, symBinAddr: 0x100006D20, symSize: 0x24 }
  - { offsetInCU: 0x16C61, offset: 0x16C61, size: 0x8, addend: 0x0, symName: __ZNKSt3__112basic_stringIcNS_11char_traitsIcEENS_9allocatorIcEEE4dataB7v160006Ev, symObjAddr: 0x5800, symBinAddr: 0x100006D44, symSize: 0x28 }
  - { offsetInCU: 0x16C87, offset: 0x16C87, size: 0x8, addend: 0x0, symName: __ZNKSt3__112basic_stringIcNS_11char_traitsIcEENS_9allocatorIcEEE13__get_pointerB7v160006Ev, symObjAddr: 0x583C, symBinAddr: 0x100006D80, symSize: 0x54 }
  - { offsetInCU: 0x16CAD, offset: 0x16CAD, size: 0x8, addend: 0x0, symName: __ZNKSt3__112basic_stringIcNS_11char_traitsIcEENS_9allocatorIcEEE18__get_long_pointerB7v160006Ev, symObjAddr: 0x5890, symBinAddr: 0x100006DD4, symSize: 0x28 }
  - { offsetInCU: 0x16CD3, offset: 0x16CD3, size: 0x8, addend: 0x0, symName: __ZNKSt3__112basic_stringIcNS_11char_traitsIcEENS_9allocatorIcEEE19__get_short_pointerB7v160006Ev, symObjAddr: 0x58B8, symBinAddr: 0x100006DFC, symSize: 0x28 }
  - { offsetInCU: 0x16CF9, offset: 0x16CF9, size: 0x8, addend: 0x0, symName: __ZNSt3__114pointer_traitsIPKcE10pointer_toB7v160006ERS1_, symObjAddr: 0x58E0, symBinAddr: 0x100006E24, symSize: 0x14 }
  - { offsetInCU: 0x16D1C, offset: 0x16D1C, size: 0x8, addend: 0x0, symName: __ZNKSt3__18ios_base4failB7v160006Ev, symObjAddr: 0x58F4, symBinAddr: 0x100006E38, symSize: 0x28 }
  - { offsetInCU: 0x16D44, offset: 0x16D44, size: 0x8, addend: 0x0, symName: __ZNSt3__111char_traitsIcE4findEPKcmRS2_, symObjAddr: 0x5B54, symBinAddr: 0x100007098, symSize: 0x70 }
  - { offsetInCU: 0x16D83, offset: 0x16D83, size: 0x8, addend: 0x0, symName: __ZNSt3__111char_traitsIcE7compareEPKcS3_m, symObjAddr: 0x5BC4, symBinAddr: 0x100007108, symSize: 0x6C }
...
